#include <math.h>
#include <stdio.h>
#include <stdlib.h>
#include <string.h>

int main()
{
  int n,sum=0,i;
  scanf("%d",&n);
  for(i=1;i<=n;i++)
	  if((i%7!=0) && (((i+3)%10)!=0) && (i!=70)&&i!=71&&i!=72&&i!=73&&i!=74&&i!=75&&i!=76&&i!=77&&i!=78&&i!=79)
		  sum=sum+i*i;
  printf("%d",sum);
  return 0;
}